(i__main__
LogFile
p0
(dp1
S'_installed_files'
p2
(dp3
S'../../../PhotonTruthStudy/x86_64-slc6-gcc48-opt/libPhotonTruthStudy.so.debug'
p4
S'../../InstallArea/x86_64-slc6-gcc48-opt/lib/libPhotonTruthStudy.so.debug'
p5
sS'../../../../../../../../../../cvmfs/atlas.cern.ch/repo/sw/software/AthAnalysisBase/x86_64-slc6-gcc48-opt/2.3.8/GAUDI/v26r1/GaudiPolicy/cmt/fragments/__init__.py'
p6
S'../../InstallArea/python/PhotonTruthStudy/__init__.py'
p7
sS'../../PhotonTruthStudy/genConf/PhotonTruthStudy'
p8
(dp9
S'../../../PhotonTruthStudy/genConf/PhotonTruthStudy/PhotonTruthStudyConf.py'
p10
S'../../InstallArea/python/PhotonTruthStudy/PhotonTruthStudyConf.py'
p11
ssS'../../../PhotonTruthStudy/x86_64-slc6-gcc48-opt/libPhotonTruthStudy.so'
p12
S'../../InstallArea/x86_64-slc6-gcc48-opt/lib/libPhotonTruthStudy.so'
p13
sS'../../../../../../../../../../cvmfs/atlas.cern.ch/repo/sw/software/AthAnalysisBase/x86_64-slc6-gcc48-opt/2.2.6/GAUDI/v25r3p2/GaudiPolicy/cmt/fragments/__init__.py'
p14
S'../../InstallArea/python/PhotonTruthStudy/__init__.py'
p15
ssb.